(dp0
S'METTS MARK'
p1
(dp2
S'salary'
p3
F365788.0
sS'bonus'
p4
F600000.0
sS'f_to'
p5
F4.708798017348203
sS'expenses'
p6
F94299.0
sS'salary_of_total_payments'
p7
F34.44892623751327
sS'from_this_person_to_poi'
p8
F1.0
sS'poi'
p9
I00
sS'from_poi_to_this_person'
p10
F38.0
sS'f_from'
p11
F3.4482758620689653
ssS'BAXTER JOHN C'
p12
(dp13
g3
F267102.0
sg4
F1200000.0
sg5
F0.0
sg6
F11200.0
sg7
F4.740605958849151
sg8
F0.0
sg9
I00
sg10
F0.0
sg11
F0.0
ssS'ELLIOTT STEVEN'
p14
(dp15
g3
F170941.0
sg4
F350000.0
sg5
F0.0
sg6
F78552.0
sg7
F80.73727712835046
sg8
F0.0
sg9
I00
sg10
F0.0
sg11
F0.0
ssS'HANNON KEVIN P'
p16
(dp17
g3
F243293.0
sg4
F1500000.0
sg5
F3.062200956937799
sg6
F34039.0
sg7
F84.27716310680957
sg8
F21.0
sg9
I01
sg10
F32.0
sg11
F65.625
ssS'MORDAUNT KRISTINA M'
p18
(dp19
g3
F267093.0
sg4
F325000.0
sg5
F0.0
sg6
F35018.0
sg7
F42.4954098663213
sg8
F0.0
sg9
I00
sg10
F0.0
sg11
F0.0
ssS'MCMAHON JEFFREY'
p20
(dp21
g3
F370448.0
sg4
F2600000.0
sg5
F2.4628450106157116
sg6
F137108.0
sg7
F9.035821756873737
sg8
F26.0
sg9
I00
sg10
F58.0
sg11
F54.166666666666664
ssS'PIPER GREGORY F'
p22
(dp23
g3
F197091.0
sg4
F400000.0
sg5
F4.92730210016155
sg6
F43057.0
sg7
F11.342524785210191
sg8
F48.0
sg9
I00
sg10
F61.0
sg11
F21.62162162162162
ssS'HUMPHREY GENE E'
p24
(dp25
g3
F130724.0
sg4
F0.0
sg5
F7.8125
sg6
F4994.0
sg7
F4.216598542556925
sg8
F17.0
sg9
I00
sg10
F10.0
sg11
F100.0
ssS'BLACHMAN JEREMY M'
p26
(dp27
g3
F248546.0
sg4
F850000.0
sg5
F1.0101010101010102
sg6
F84208.0
sg7
F12.335799209364538
sg8
F2.0
sg9
I00
sg10
F25.0
sg11
F14.285714285714285
ssS'SUNDE MARTIN'
p28
(dp29
g3
F257486.0
sg4
F700000.0
sg5
F1.3978088401964488
sg6
F0.0
sg7
F16.665124115001433
sg8
F13.0
sg9
I00
sg10
F37.0
sg11
F34.21052631578947
ssS'COLWELL WESLEY'
p30
(dp31
g3
F288542.0
sg4
F1200000.0
sg5
F13.651877133105803
sg6
F16514.0
sg7
F19.360765031428986
sg8
F11.0
sg9
I01
sg10
F240.0
sg11
F27.500000000000004
ssS'MULLER MARK S'
p32
(dp33
g3
F251654.0
sg4
F1100000.0
sg5
F8.823529411764707
sg6
F0.0
sg7
F7.859103642331366
sg8
F0.0
sg9
I00
sg10
F12.0
sg11
F0.0
ssS'JACKSON CHARLENE R'
p34
(dp35
g3
F288558.0
sg4
F250000.0
sg5
F9.689922480620156
sg6
F10181.0
sg7
F52.35334032447104
sg8
F19.0
sg9
I00
sg10
F25.0
sg11
F33.92857142857143
ssS'WESTFAHL RICHARD K'
p36
(dp37
g3
F63744.0
sg4
F0.0
sg5
F0.0
sg6
F51870.0
sg7
F8.363872542266133
sg8
F0.0
sg9
I00
sg10
F0.0
sg11
F0.0
ssS'WALLS JR ROBERT H'
p38
(dp39
g3
F357091.0
sg4
F850000.0
sg5
F2.533532041728763
sg6
F50936.0
sg7
F19.85184402761872
sg8
F0.0
sg9
I00
sg10
F17.0
sg11
F0.0
ssS'KITCHEN LOUISE'
p40
(dp41
g3
F271442.0
sg4
F3100000.0
sg5
F3.0222757375075253
sg6
F5774.0
sg7
F7.819964674439903
sg8
F194.0
sg9
I00
sg10
F251.0
sg11
F11.226851851851851
ssS'SHANKMAN JEFFREY A'
p42
(dp43
g3
F304110.0
sg4
F2000000.0
sg5
F2.9183483390251475
sg6
F178979.0
sg7
F10.007891527369251
sg8
F83.0
sg9
I00
sg10
F94.0
sg11
F3.0958597538232002
ssS'BERGSIEKER RICHARD P'
p44
(dp45
g3
F187922.0
sg4
F250000.0
sg5
F1.0443864229765014
sg6
F59175.0
sg7
F30.36632463440252
sg8
F0.0
sg9
I00
sg10
F4.0
sg11
F0.0
ssS'BIBI PHILIPPE A'
p46
(dp47
g3
F213625.0
sg4
F1000000.0
sg5
F1.4312383322962041
sg6
F38559.0
sg7
F10.432981554439774
sg8
F8.0
sg9
I00
sg10
F23.0
sg11
F20.0
ssS'RIEKER PAULA H'
p48
(dp49
g3
F249201.0
sg4
F700000.0
sg5
F2.635542168674699
sg6
F33271.0
sg7
F22.673187153125284
sg8
F48.0
sg9
I01
sg10
F35.0
sg11
F58.536585365853654
ssS'BECK SALLY W'
p50
(dp51
g3
F231330.0
sg4
F700000.0
sg5
F1.9685577580314422
sg6
F37172.0
sg7
F23.871389830228633
sg8
F386.0
sg9
I00
sg10
F144.0
sg11
F8.887865530739122
ssS'ECHOLS JOHN B'
p52
(dp53
g3
F182245.0
sg4
F200000.0
sg5
F0.0
sg6
F21530.0
sg7
F6.769058998842635
sg8
F0.0
sg9
I00
sg10
F0.0
sg11
F0.0
ssS'HICKERSON GARY J'
p54
(dp55
g3
F211788.0
sg4
F1700000.0
sg5
F3.0303030303030303
sg6
F98849.0
sg7
F10.173331104488623
sg8
F1.0
sg9
I00
sg10
F40.0
sg11
F3.7037037037037033
ssS'RICE KENNETH D'
p56
(dp57
g3
F420636.0
sg4
F1750000.0
sg5
F4.640883977900553
sg6
F46950.0
sg7
F83.28601128601129
sg8
F4.0
sg9
I01
sg10
F42.0
sg11
F22.22222222222222
ssS'KOPPER MICHAEL J'
p58
(dp59
g3
F224305.0
sg4
F800000.0
sg5
F0.0
sg6
F118134.0
sg7
F8.456004873686766
sg8
F0.0
sg9
I01
sg10
F0.0
sg11
F0.0
ssS'LEFF DANIEL P'
p60
(dp61
g3
F273746.0
sg4
F1000000.0
sg5
F2.374202693125443
sg6
F0.0
sg7
F10.274871369867745
sg8
F14.0
sg9
I00
sg10
F67.0
sg11
F22.22222222222222
ssS'LAVORATO JOHN J'
p62
(dp63
g3
F339288.0
sg4
F8000000.0
sg5
F7.273729163796666
sg6
F49537.0
sg7
F3.254324841831629
sg8
F411.0
sg9
I00
sg10
F528.0
sg11
F15.899419729206961
ssS'BERBERIAN DAVID'
p64
(dp65
g3
F216582.0
sg4
F0.0
sg5
F0.0
sg6
F11892.0
sg7
F94.79503138212662
sg8
F0.0
sg9
I00
sg10
F0.0
sg11
F0.0
ssS'DETMERING TIMOTHY J'
p66
(dp67
g3
F210500.0
sg4
F425000.0
sg5
F0.0
sg6
F52255.0
sg7
F17.474927007935527
sg8
F0.0
sg9
I00
sg10
F0.0
sg11
F0.0
ssS'GOLD JOSEPH'
p68
(dp69
g3
F272880.0
sg4
F750000.0
sg5
F0.0
sg6
F0.0
sg7
F12.709987503336093
sg8
F0.0
sg9
I00
sg10
F0.0
sg11
F0.0
ssS'BANNANTINE JAMES M'
p70
(dp71
g3
F477.0
sg4
F0.0
sg5
F6.890459363957597
sg6
F56301.0
sg7
F0.052063038844266024
sg8
F0.0
sg9
I00
sg10
F39.0
sg11
F0.0
ssS'SHAPIRO RICHARD S'
p72
(dp73
g3
F269076.0
sg4
F650000.0
sg5
F0.48848108786058486
sg6
F137767.0
sg7
F25.443384130082038
sg8
F65.0
sg9
I00
sg10
F74.0
sg11
F5.349794238683128
ssS'SHERRIFF JOHN R'
p74
(dp75
g3
F428780.0
sg4
F1500000.0
sg5
F0.8785691873235018
sg6
F0.0
sg7
F9.890233584629565
sg8
F23.0
sg9
I00
sg10
F28.0
sg11
F25.0
ssS'SHELBY REX'
p76
(dp77
g3
F211844.0
sg4
F200000.0
sg5
F5.777777777777778
sg6
F22884.0
sg7
F10.571664541627888
sg8
F14.0
sg9
I01
sg10
F13.0
sg11
F35.8974358974359
ssS'DEFFNER JOSEPH M'
p78
(dp79
g3
F206121.0
sg4
F600000.0
sg5
F16.106442577030812
sg6
F41626.0
sg7
F17.053834487928256
sg8
F4.0
sg9
I00
sg10
F115.0
sg11
F5.405405405405405
ssS'KISHKILL JOSEPH G'
p80
(dp81
g3
F174246.0
sg4
F0.0
sg5
F0.0
sg6
F116335.0
sg7
F24.71939122934447
sg8
F0.0
sg9
I00
sg10
F0.0
sg11
F0.0
ssS'WHALLEY LAWRENCE G'
p82
(dp83
g3
F510364.0
sg4
F3000000.0
sg5
F3.090214321315833
sg6
F57838.0
sg7
F10.910869608904102
sg8
F24.0
sg9
I00
sg10
F186.0
sg11
F4.316546762589928
ssS'MCCONNELL MICHAEL S'
p84
(dp85
g3
F365038.0
sg4
F1100000.0
sg5
F2.763592670471613
sg6
F81364.0
sg7
F17.371478715729403
sg8
F194.0
sg9
I00
sg10
F92.0
sg11
F7.075127644055435
ssS'DELAINEY DAVID W'
p86
(dp87
g3
F365163.0
sg4
F3000000.0
sg5
F2.133850630455868
sg6
F86174.0
sg7
F7.690914386942318
sg8
F609.0
sg9
I01
sg10
F66.0
sg11
F19.843597262952102
ssS'SULLIVAN-SHAKLOVITZ COLLEEN'
p88
(dp89
g3
F162779.0
sg4
F100000.0
sg5
F0.0
sg6
F0.0
sg7
F16.2883897229816
sg8
F0.0
sg9
I00
sg10
F0.0
sg11
F0.0
ssS'LINDHOLM TOD A'
p90
(dp91
g3
F236457.0
sg4
F200000.0
sg5
F0.0
sg6
F57727.0
sg7
F26.99622897421934
sg8
F0.0
sg9
I00
sg10
F0.0
sg11
F0.0
ssS'LAY KENNETH L'
p92
(dp93
g3
F1072321.0
sg4
F7000000.0
sg5
F2.8785396676807866
sg6
F99832.0
sg7
F1.035460741023304
sg8
F16.0
sg9
I01
sg10
F123.0
sg11
F44.44444444444444
ssS'BUTTS ROBERT H'
p94
(dp95
g3
F261516.0
sg4
F750000.0
sg5
F0.0
sg6
F9410.0
sg7
F20.566192349372674
sg8
F0.0
sg9
I00
sg10
F0.0
sg11
F0.0
ssS'OLSON CINDY K'
p96
(dp97
g3
F329078.0
sg4
F750000.0
sg5
F1.6891891891891893
sg6
F63791.0
sg7
F24.90077991339004
sg8
F15.0
sg9
I00
sg10
F20.0
sg11
F28.846153846153843
ssS'PICKERING MARK R'
p98
(dp99
g3
F655037.0
sg4
F300000.0
sg5
F0.779510022271715
sg6
F31653.0
sg7
F47.23745033136461
sg8
F0.0
sg9
I00
sg10
F7.0
sg11
F0.0
ssS'CUMBERLAND MICHAEL S'
p100
(dp101
g3
F184899.0
sg4
F325000.0
sg5
F0.0
sg6
F22344.0
sg7
F22.88478580516761
sg8
F0.0
sg9
I00
sg10
F0.0
sg11
F0.0
ssS'GAHN ROBERT S'
p102
(dp103
g3
F192008.0
sg4
F509870.0
sg5
F0.0
sg6
F50080.0
sg7
F21.320363985631563
sg8
F0.0
sg9
I00
sg10
F0.0
sg11
F0.0
ssS'HERMANN ROBERT J'
p104
(dp105
g3
F262663.0
sg4
F700000.0
sg5
F0.0
sg6
F48357.0
sg7
F20.244384995001777
sg8
F0.0
sg9
I00
sg10
F0.0
sg11
F0.0
ssS'HAEDICKE MARK E'
p106
(dp107
g3
F374125.0
sg4
F1150000.0
sg5
F4.489897730107259
sg6
F76169.0
sg7
F9.694705841959127
sg8
F61.0
sg9
I00
sg10
F180.0
sg11
F3.1427099433281813
ssS'BOWEN JR RAYMOND M'
p108
(dp109
g3
F278601.0
sg4
F1350000.0
sg5
F7.534983853606028
sg6
F65907.0
sg7
F10.436100837994163
sg8
F15.0
sg9
I01
sg10
F140.0
sg11
F55.55555555555556
ssS'FITZGERALD JAY L'
p110
(dp111
g3
F199157.0
sg4
F350000.0
sg5
F0.10683760683760685
sg6
F23870.0
sg7
F14.076122180545456
sg8
F8.0
sg9
I00
sg10
F1.0
sg11
F50.0
ssS'REDMOND BRIAN L'
p112
(dp113
g3
F96840.0
sg4
F0.0
sg5
F12.208258527827647
sg6
F14689.0
sg7
F86.82943449685732
sg8
F49.0
sg9
I00
sg10
F204.0
sg11
F22.171945701357465
ssS'BAZELIDES PHILIP J'
p114
(dp115
g3
F80818.0
sg4
F0.0
sg5
F0.0
sg6
F0.0
sg7
F9.395955988355329
sg8
F0.0
sg9
I00
sg10
F0.0
sg11
F0.0
ssS'BELDEN TIMOTHY N'
p116
(dp117
g3
F213999.0
sg4
F5249999.0
sg5
F2.85320986109373
sg6
F17355.0
sg7
F3.889738132153562
sg8
F108.0
sg9
I01
sg10
F228.0
sg11
F22.31404958677686
ssS'DURAN WILLIAM D'
p118
(dp119
g3
F210692.0
sg4
F750000.0
sg5
F11.725663716814159
sg6
F25785.0
sg7
F10.065242637929396
sg8
F3.0
sg9
I00
sg10
F106.0
sg11
F25.0
ssS'THORN TERENCE H'
p120
(dp121
g3
F222093.0
sg4
F0.0
sg5
F0.0
sg6
F46145.0
sg7
F24.366917438419755
sg8
F0.0
sg9
I00
sg10
F0.0
sg11
F0.0
ssS'FASTOW ANDREW S'
p122
(dp123
g3
F440698.0
sg4
F1300000.0
sg5
F0.0
sg6
F55921.0
sg7
F18.17998806146489
sg8
F0.0
sg9
I01
sg10
F0.0
sg11
F0.0
ssS'CALGER CHRISTOPHER F'
p124
(dp125
g3
F240189.0
sg4
F1250000.0
sg5
F7.659738260200154
sg6
F35818.0
sg7
F14.651951415759315
sg8
F25.0
sg9
I01
sg10
F199.0
sg11
F17.36111111111111
ssS'KAMINSKI WINCENTY J'
p126
(dp127
g3
F275101.0
sg4
F400000.0
sg5
F0.8899500759713479
sg6
F83585.0
sg7
F25.31244795601116
sg8
F171.0
sg9
I00
sg10
F41.0
sg11
F1.1901447661469933
ssS'COX DAVID'
p128
(dp129
g3
F314288.0
sg4
F800000.0
sg5
F0.0
sg6
F27861.0
sg7
F28.535500044035146
sg8
F4.0
sg9
I00
sg10
F0.0
sg11
F12.121212121212121
ssS'OVERDYKE JR JERE C'
p130
(dp131
g3
F94941.0
sg4
F0.0
sg5
F0.0
sg6
F18834.0
sg7
F38.008783483527964
sg8
F0.0
sg9
I00
sg10
F0.0
sg11
F0.0
ssS'STABLER FRANK'
p132
(dp133
g3
F239502.0
sg4
F500000.0
sg5
F0.0
sg6
F16514.0
sg7
F21.53626469871512
sg8
F0.0
sg9
I00
sg10
F0.0
sg11
F0.0
ssS'SKILLING JEFFREY K'
p134
(dp135
g3
F1111258.0
sg4
F5600000.0
sg5
F2.42624758753791
sg6
F29336.0
sg7
F12.798506826665756
sg8
F30.0
sg9
I01
sg10
F88.0
sg11
F27.77777777777778
ssS'GRAY RODNEY'
p136
(dp137
g3
F6615.0
sg4
F0.0
sg5
F0.0
sg6
F0.0
sg7
F0.5768938951282772
sg8
F0.0
sg9
I00
sg10
F0.0
sg11
F0.0
ssS'UMANOFF ADAM S'
p138
(dp139
g3
F288589.0
sg4
F788750.0
sg5
F10.81081081081081
sg6
F53122.0
sg7
F25.52843485976075
sg8
F0.0
sg9
I00
sg10
F12.0
sg11
F0.0
ssS'KEAN STEVEN J'
p140
(dp141
g3
F404338.0
sg4
F1000000.0
sg5
F1.0976948408342482
sg6
F41953.0
sg7
F23.137791684453756
sg8
F387.0
sg9
I00
sg10
F140.0
sg11
F5.725699067909454
ssS'WASAFF GEORGE'
p142
(dp143
g3
F259996.0
sg4
F325000.0
sg5
F5.5
sg6
F0.0
sg7
F25.13507895919837
sg8
F7.0
sg9
I00
sg10
F22.0
sg11
F23.333333333333332
ssS'WHITE JR THOMAS E'
p144
(dp145
g3
F317543.0
sg4
F450000.0
sg5
F0.0
sg6
F81353.0
sg7
F16.41592899766796
sg8
F0.0
sg9
I00
sg10
F0.0
sg11
F0.0
ssS'ALLEN PHILLIP K'
p146
(dp147
g3
F201955.0
sg4
F4175000.0
sg5
F1.6195727084769125
sg6
F13868.0
sg7
F4.503458847276874
sg8
F65.0
sg9
I00
sg10
F47.0
sg11
F2.9612756264236904
ssS'SHARP VICTORIA T'
p148
(dp149
g3
F248146.0
sg4
F600000.0
sg5
F0.7653061224489796
sg6
F116337.0
sg7
F15.740200988131386
sg8
F6.0
sg9
I00
sg10
F24.0
sg11
F4.411764705882353
ssS'MCCLELLAN GEORGE'
p150
(dp151
g3
F263413.0
sg4
F900000.0
sg5
F2.981651376146789
sg6
F228763.0
sg7
F19.97424859508494
sg8
F0.0
sg9
I00
sg10
F52.0
sg11
F0.0
ssS'CARTER REBECCA C'
p152
(dp153
g3
F261809.0
sg4
F300000.0
sg5
F9.294871794871796
sg6
F0.0
sg7
F54.82256568325875
sg8
F7.0
sg9
I00
sg10
F29.0
sg11
F46.666666666666664
ssS'REYNOLDS LAWRENCE'
p154
(dp155
g3
F76399.0
sg4
F100000.0
sg5
F0.0
sg6
F8409.0
sg7
F19.36726028265416
sg8
F0.0
sg9
I00
sg10
F0.0
sg11
F0.0
ssS'DIMICHELE RICHARD G'
p156
(dp157
g3
F262788.0
sg4
F1000000.0
sg5
F0.0
sg6
F35812.0
sg7
F11.096758610409555
sg8
F0.0
sg9
I00
sg10
F0.0
sg11
F0.0
ssS'BUCHANAN HAROLD G'
p158
(dp159
g3
F248017.0
sg4
F500000.0
sg5
F0.0
sg6
F600.0
sg7
F23.516811945721606
sg8
F0.0
sg9
I00
sg10
F0.0
sg11
F0.0
ssS'MURRAY JULIA H'
p160
(dp161
g3
F229284.0
sg4
F400000.0
sg5
F0.5018248175182481
sg6
F57580.0
sg7
F28.230201158836437
sg8
F2.0
sg9
I00
sg10
F11.0
sg11
F4.444444444444445
ssS'GARLAND C KEVIN'
p162
(dp163
g3
F231946.0
sg4
F850000.0
sg5
F4.784688995215311
sg6
F48405.0
sg7
F14.806932023551056
sg8
F27.0
sg9
I00
sg10
F10.0
sg11
F61.36363636363637
ssS'DODSON KEITH'
p164
(dp165
g3
F221003.0
sg4
F70000.0
sg5
F5.681818181818182
sg6
F28164.0
sg7
F69.07617341947422
sg8
F3.0
sg9
I00
sg10
F10.0
sg11
F21.428571428571427
ssS'YEAGER F SCOTT'
p166
(dp167
g3
F158403.0
sg4
F0.0
sg5
F0.0
sg6
F53947.0
sg7
F43.96419650291424
sg8
F0.0
sg9
I01
sg10
F0.0
sg11
F0.0
ssS'DIETRICH JANET R'
p168
(dp169
g3
F250100.0
sg4
F600000.0
sg5
F11.858475894245723
sg6
F3475.0
sg7
F17.73175352224516
sg8
F14.0
sg9
I00
sg10
F305.0
sg11
F22.22222222222222
ssS'DERRICK JR. JAMES V'
p170
(dp171
g3
F492375.0
sg4
F800000.0
sg5
F2.9344337459880787
sg6
F51124.0
sg7
F89.36333557781484
sg8
F20.0
sg9
I00
sg10
F64.0
sg11
F2.2002200220022003
ssS'FREVERT MARK A'
p172
(dp173
g3
F1060932.0
sg4
F2000000.0
sg5
F7.3893129770992365
sg6
F86987.0
sg7
F6.149428518599881
sg8
F6.0
sg9
I00
sg10
F242.0
sg11
F28.57142857142857
ssS'PAI LOU L'
p174
(dp175
g3
F261879.0
sg4
F1000000.0
sg5
F0.0
sg6
F32047.0
sg7
F8.384466458324196
sg8
F0.0
sg9
I00
sg10
F0.0
sg11
F0.0
ssS'BAY FRANKLIN R'
p176
(dp177
g3
F239671.0
sg4
F400000.0
sg5
F0.0
sg6
F129142.0
sg7
F28.95640428369836
sg8
F0.0
sg9
I00
sg10
F0.0
sg11
F0.0
ssS'FALLON JAMES B'
p178
(dp179
g3
F304588.0
sg4
F2500000.0
sg5
F2.3931623931623935
sg6
F95924.0
sg7
F8.285087886321723
sg8
F37.0
sg9
I00
sg10
F42.0
sg11
F49.333333333333336
ssS'KOENIG MARK E'
p180
(dp181
g3
F309946.0
sg4
F700000.0
sg5
F2.232518955349621
sg6
F127017.0
sg7
F19.52512912453596
sg8
F15.0
sg9
I01
sg10
F53.0
sg11
F24.59016393442623
ssS'IZZO LAWRENCE L'
p182
(dp183
g3
F85274.0
sg4
F0.0
sg5
F5.64516129032258
sg6
F28093.0
sg7
F4.307646610722592
sg8
F5.0
sg9
I00
sg10
F28.0
sg11
F26.31578947368421
ssS'TILNEY ELIZABETH A'
p184
(dp185
g3
F247338.0
sg4
F300000.0
sg5
F2.1739130434782608
sg6
F0.0
sg7
F61.92847646303265
sg8
F11.0
sg9
I00
sg10
F10.0
sg11
F57.89473684210527
ssS'MARTIN AMANDA K'
p186
(dp187
g3
F349487.0
sg4
F0.0
sg5
F0.5256241787122208
sg6
F8211.0
sg7
F4.157087366076144
sg8
F0.0
sg9
I00
sg10
F8.0
sg11
F0.0
ssS'BUY RICHARD B'
p188
(dp189
g3
F330546.0
sg4
F900000.0
sg5
F4.428044280442804
sg6
F0.0
sg7
F14.031740856865596
sg8
F71.0
sg9
I00
sg10
F156.0
sg11
F6.7426400759734095
ssS'CAUSEY RICHARD A'
p190
(dp191
g3
F415189.0
sg4
F1000000.0
sg5
F3.06553911205074
sg6
F30674.0
sg7
F22.217376460729533
sg8
F12.0
sg9
I01
sg10
F58.0
sg11
F24.489795918367346
ssS'TAYLOR MITCHELL S'
p192
(dp193
g3
F265214.0
sg4
F600000.0
sg5
F0.0
sg6
F0.0
sg7
F24.272259607948655
sg8
F0.0
sg9
I00
sg10
F0.0
sg11
F0.0
ssS'DONAHUE JR JEFFREY M'
p194
(dp195
g3
F278601.0
sg4
F800000.0
sg5
F21.734104046242773
sg6
F96268.0
sg7
F31.812482872019732
sg8
F11.0
sg9
I00
sg10
F188.0
sg11
F50.0
ssS'GLISAN JR BEN F'
p196
(dp197
g3
F274975.0
sg4
F600000.0
sg5
F5.956471935853378
sg6
F125978.0
sg7
F21.61270596816434
sg8
F6.0
sg9
I01
sg10
F52.0
sg11
F37.5
ss.